; Function Attrs: mustprogress uwtable
define dso_local void @_ZNK16cmCursesMainForm8FixValueEN12cmStateEnums14CacheEntryTypeERKNSt7__cxx1112basic_stringIcSt11char_traitsIcESaIcEEERS7_(ptr nocapture nonnull readnone align 8 %0, i32 noundef %1, ptr noundef nonnull align 8 dereferenceable(32) %2, ptr noundef nonnull align 8 dereferenceable(32) %3) local_unnamed_addr #3 align 2 {
  %5 = alloca %"class.std::__cxx11::basic_string", align 8
  %6 = tail call noundef i64 @_ZNKSt7__cxx1112basic_stringIcSt11char_traitsIcESaIcEE16find_last_not_ofEcm(ptr noundef nonnull align 8 dereferenceable(32) %2, i8 noundef signext 32, i64 noundef -1) #19
  %7 = add i64 %6, 1
  call void @_ZNKSt7__cxx1112basic_stringIcSt11char_traitsIcESaIcEE6substrEmm(ptr dead_on_unwind nonnull writable sret(%"class.std::__cxx11::basic_string") align 8 %5, ptr noundef nonnull align 8 dereferenceable(32) %2, i64 noundef 0, i64 noundef %7)
  %8 = call noundef nonnull align 8 dereferenceable(32) ptr @_ZNSt7__cxx1112basic_stringIcSt11char_traitsIcESaIcEEaSEOS4_(ptr noundef nonnull align 8 dereferenceable(32) %3, ptr noundef nonnull align 8 dereferenceable(32) %5) #19
  call void @_ZNSt7__cxx1112basic_stringIcSt11char_traitsIcESaIcEED1Ev(ptr noundef nonnull align 8 dereferenceable(32) %5) #19
  %9 = add i32 %1, -1
  %or.cond = icmp ult i32 %9, 2
  br i1 %or.cond, label %.thread, label %10

.thread:                                          ; preds = %4
  call void @_ZN5cmsys11SystemTools20ConvertToUnixSlashesERNSt7__cxx1112basic_stringIcSt11char_traitsIcESaIcEEE(ptr noundef nonnull align 8 dereferenceable(32) %3)
  br label %21

10:                                               ; preds = %4
  %11 = icmp eq i32 %1, 0
  br i1 %11, label %12, label %21

12:                                               ; preds = %10
  %13 = call { i64, ptr } @_ZNKSt7__cxx1112basic_stringIcSt11char_traitsIcESaIcEEcvSt17basic_string_viewIcS2_EEv(ptr noundef nonnull align 8 dereferenceable(32) %3) #19
  %14 = extractvalue { i64, ptr } %13, 0
  %15 = extractvalue { i64, ptr } %13, 1
  %16 = call noundef zeroext i1 @_ZN7cmValue5IsOffESt17basic_string_viewIcSt11char_traitsIcEE(i64 %14, ptr %15) #19
  br i1 %16, label %17, label %19

17:                                               ; preds = %12
  %18 = call noundef nonnull align 8 dereferenceable(32) ptr @_ZNSt7__cxx1112basic_stringIcSt11char_traitsIcESaIcEEaSEPKc(ptr noundef nonnull align 8 dereferenceable(32) %3, ptr noundef nonnull @.str.27)
  br label %21

19:                                               ; preds = %12
  %20 = call noundef nonnull align 8 dereferenceable(32) ptr @_ZNSt7__cxx1112basic_stringIcSt11char_traitsIcESaIcEEaSEPKc(ptr noundef nonnull align 8 dereferenceable(32) %3, ptr noundef nonnull @.str.28)
  br label %21

21:                                               ; preds = %.thread, %17, %19, %10
  ret void
}